; Function Attrs: inlinehint nounwind uwtable
define internal fastcc void @set_ue_golomb(ptr noundef nonnull captures(none) %0, i32 noundef %1) unnamed_addr #7 {
  %3 = icmp slt i32 %1, 256
  br i1 %3, label %4, label %38

4:                                                ; preds = %2
  %5 = sext i32 %1 to i64
  %6 = getelementptr inbounds [256 x i8], ptr @ff_ue_golomb_len, i64 0, i64 %5
  %7 = load i8, ptr %6, align 1, !tbaa !51
  %8 = zext i8 %7 to i32
  %9 = add nsw i32 %1, 1
  %10 = load i32, ptr %0, align 8, !tbaa !115
  %11 = getelementptr inbounds nuw i8, ptr %0, i64 4
  %12 = load i32, ptr %11, align 4, !tbaa !116
  %13 = icmp sgt i32 %12, %8
  br i1 %13, label %14, label %18

14:                                               ; preds = %4
  %15 = shl i32 %10, %8
  %16 = or i32 %15, %9
  %17 = sub nsw i32 %12, %8
  br label %put_bits.exit

18:                                               ; preds = %4
  %19 = getelementptr inbounds nuw i8, ptr %0, i64 24
  %20 = load ptr, ptr %19, align 8, !tbaa !108
  %21 = getelementptr inbounds nuw i8, ptr %0, i64 16
  %22 = load ptr, ptr %21, align 8, !tbaa !109
  %23 = ptrtoint ptr %20 to i64
  %24 = ptrtoint ptr %22 to i64
  %25 = sub i64 %23, %24
  %26 = icmp ugt i64 %25, 3
  br i1 %26, label %27, label %35

27:                                               ; preds = %18
  %28 = shl i32 %10, %12
  %29 = sub nsw i32 %8, %12
  %30 = lshr i32 %9, %29
  %31 = or i32 %30, %28
  %32 = tail call i32 @llvm.bswap.i32(i32 %31)
  store i32 %32, ptr %22, align 1, !tbaa !51
  %33 = load ptr, ptr %21, align 8, !tbaa !109
  %34 = getelementptr inbounds nuw i8, ptr %33, i64 4
  store ptr %34, ptr %21, align 8, !tbaa !109
  br label %36

35:                                               ; preds = %18
  tail call void (ptr, i32, ptr, ...) @av_log(ptr noundef null, i32 noundef 16, ptr noundef nonnull @.str.14) #12
  br label %36

36:                                               ; preds = %35, %27
  %reass.sub = sub i32 %12, %8
  %37 = add i32 %reass.sub, 32
  br label %put_bits.exit

put_bits.exit:                                    ; preds = %14, %36
  %.026.i.i = phi i32 [ %16, %14 ], [ %9, %36 ]
  %.0.i.i = phi i32 [ %17, %14 ], [ %37, %36 ]
  store i32 %.026.i.i, ptr %0, align 8, !tbaa !115
  store i32 %.0.i.i, ptr %11, align 4, !tbaa !116
  br label %76

38:                                               ; preds = %2
  %39 = add nuw nsw i32 %1, 1
  %.not.i = icmp samesign ult i32 %1, 65535
  %40 = lshr i32 %39, 16
  %spec.select.i = select i1 %.not.i, i32 %39, i32 %40
  %spec.select12.i = select i1 %.not.i, i32 0, i32 16
  %.not11.i = icmp samesign ult i32 %spec.select.i, 256
  %41 = lshr i32 %spec.select.i, 8
  %42 = or disjoint i32 %spec.select12.i, 8
  %.110.i = select i1 %.not11.i, i32 %spec.select.i, i32 %41
  %.1.i = select i1 %.not11.i, i32 %spec.select12.i, i32 %42
  %43 = zext nneg i32 %.110.i to i64
  %44 = getelementptr inbounds nuw [256 x i8], ptr @ff_log2_tab, i64 0, i64 %43
  %45 = load i8, ptr %44, align 1, !tbaa !51
  %46 = zext i8 %45 to i32
  %47 = add nuw nsw i32 %.1.i, %46
  %48 = shl nuw nsw i32 %47, 1
  %49 = or disjoint i32 %48, 1
  %50 = load i32, ptr %0, align 8, !tbaa !115
  %51 = getelementptr inbounds nuw i8, ptr %0, i64 4
  %52 = load i32, ptr %51, align 4, !tbaa !116
  %53 = icmp slt i32 %49, %52
  br i1 %53, label %54, label %57

54:                                               ; preds = %38
  %55 = shl i32 %50, %49
  %56 = or i32 %55, %39
  br label %put_bits.exit10

57:                                               ; preds = %38
  %58 = getelementptr inbounds nuw i8, ptr %0, i64 24
  %59 = load ptr, ptr %58, align 8, !tbaa !108
  %60 = getelementptr inbounds nuw i8, ptr %0, i64 16
  %61 = load ptr, ptr %60, align 8, !tbaa !109
  %62 = ptrtoint ptr %59 to i64
  %63 = ptrtoint ptr %61 to i64
  %64 = sub i64 %62, %63
  %65 = icmp ugt i64 %64, 3
  br i1 %65, label %66, label %74

66:                                               ; preds = %57
  %67 = shl i32 %50, %52
  %68 = sub nsw i32 %49, %52
  %69 = lshr i32 %39, %68
  %70 = or i32 %69, %67
  %71 = tail call i32 @llvm.bswap.i32(i32 %70)
  store i32 %71, ptr %61, align 1, !tbaa !51
  %72 = load ptr, ptr %60, align 8, !tbaa !109
  %73 = getelementptr inbounds nuw i8, ptr %72, i64 4
  store ptr %73, ptr %60, align 8, !tbaa !109
  br label %75

74:                                               ; preds = %57
  tail call void (ptr, i32, ptr, ...) @av_log(ptr noundef null, i32 noundef 16, ptr noundef nonnull @.str.14) #12
  br label %75

75:                                               ; preds = %74, %66
  %reass.sub.i7 = add nsw i32 %52, 32
  br label %put_bits.exit10

put_bits.exit10:                                  ; preds = %54, %75
  %.026.i.i8 = phi i32 [ %56, %54 ], [ %39, %75 ]
  %.pn = phi i32 [ %52, %54 ], [ %reass.sub.i7, %75 ]
  %.0.i.i9 = sub i32 %.pn, %49
  store i32 %.026.i.i8, ptr %0, align 8, !tbaa !115
  store i32 %.0.i.i9, ptr %51, align 4, !tbaa !116
  br label %76

76:                                               ; preds = %put_bits.exit10, %put_bits.exit
  ret void
}